target datalayout = "e-m:e-p270:32:32-p271:32:32-p272:64:64-i64:64-i128:128-f80:128-n8:16:32:64-S128"
target triple = "x86_64-pc-linux-gnu"

%union.EX_STYPE = type { ptr }
%struct.Exnode_s = type { i64, i64, i8, %union.anon, %union.Exdata_u, i32 }
%union.anon = type { ptr }
%union.Exdata_u = type { %struct.anon.2 }
%struct.anon.2 = type { ptr, ptr, ptr, ptr }
%struct.anon.0 = type { ptr, ptr }

; Function Attrs: nounwind uwtable
define internal i32 @prints(ptr noundef %0, ptr noundef %1, ptr noundef %2, ptr noundef %3) #0 {
  %5 = alloca ptr, align 8
  %6 = alloca ptr, align 8
  %7 = alloca ptr, align 8
  %8 = alloca ptr, align 8
  %9 = alloca %union.EX_STYPE, align 8
  %10 = alloca ptr, align 8
  %11 = alloca %union.EX_STYPE, align 8
  store ptr %0, ptr %5, align 8, !tbaa !3
  store ptr %1, ptr %6, align 8, !tbaa !8
  store ptr %2, ptr %7, align 8, !tbaa !10
  store ptr %3, ptr %8, align 8, !tbaa !50
  call void @llvm.lifetime.start.p0(i64 8, ptr %9) #15
  call void @llvm.lifetime.start.p0(i64 8, ptr %10) #15
  %12 = load ptr, ptr %6, align 8, !tbaa !8
  %13 = getelementptr inbounds nuw %struct.Exnode_s, ptr %12, i32 0, i32 4
  %14 = getelementptr inbounds nuw %struct.anon.0, ptr %13, i32 0, i32 0
  %15 = load ptr, ptr %14, align 8, !tbaa !11
  store ptr %15, ptr %10, align 8, !tbaa !8
  br label %16

16:                                               ; preds = %19, %4
  %17 = load ptr, ptr %10, align 8, !tbaa !8
  %18 = icmp ne ptr %17, null
  br i1 %18, label %19, label %35

19:                                               ; preds = %16
  call void @llvm.lifetime.start.p0(i64 8, ptr %11) #15
  %20 = load ptr, ptr %5, align 8, !tbaa !3
  %21 = load ptr, ptr %10, align 8, !tbaa !8
  %22 = getelementptr inbounds nuw %struct.Exnode_s, ptr %21, i32 0, i32 4
  %23 = getelementptr inbounds nuw %struct.anon.0, ptr %22, i32 0, i32 0
  %24 = load ptr, ptr %23, align 8, !tbaa !11
  %25 = load ptr, ptr %7, align 8, !tbaa !10
  %26 = call ptr @eval(ptr noundef %20, ptr noundef %24, ptr noundef %25)
  %27 = getelementptr inbounds nuw %union.EX_STYPE, ptr %11, i32 0, i32 0
  store ptr %26, ptr %27, align 8
  call void @llvm.memcpy.p0.p0.i64(ptr align 8 %9, ptr align 8 %11, i64 8, i1 false), !tbaa.struct !34
  call void @llvm.lifetime.end.p0(i64 8, ptr %11) #15
  %28 = load ptr, ptr %9, align 8, !tbaa !11
  %29 = load ptr, ptr %8, align 8, !tbaa !50
  %30 = call i32 @fputs(ptr noundef %28, ptr noundef %29)
  %31 = load ptr, ptr %10, align 8, !tbaa !8
  %32 = getelementptr inbounds nuw %struct.Exnode_s, ptr %31, i32 0, i32 4
  %33 = getelementptr inbounds nuw %struct.anon.0, ptr %32, i32 0, i32 1
  %34 = load ptr, ptr %33, align 8, !tbaa !11
  store ptr %34, ptr %10, align 8, !tbaa !8
  br label %16, !llvm.loop !90

35:                                               ; preds = %16
  %36 = load ptr, ptr %8, align 8, !tbaa !50
  %37 = call i32 @putc(i32 noundef 10, ptr noundef %36)
  call void @llvm.lifetime.end.p0(i64 8, ptr %10) #15
  call void @llvm.lifetime.end.p0(i64 8, ptr %9) #15
  ret i32 0
}