; Function Attrs: nounwind uwtable
define internal fastcc void @prints(ptr noundef %0, ptr noundef nonnull readonly captures(none) %1, ptr noundef %2, ptr noundef captures(none) %3) unnamed_addr #0 {
  %5 = getelementptr inbounds nuw i8, ptr %1, i64 32
  %.09 = load ptr, ptr %5, align 8, !tbaa !3
  %.not10 = icmp eq ptr %.09, null
  br i1 %.not10, label %._crit_edge, label %.lr.ph

.lr.ph:                                           ; preds = %4, %.lr.ph
  %.011 = phi ptr [ %.0, %.lr.ph ], [ %.09, %4 ]
  %6 = getelementptr inbounds nuw i8, ptr %.011, i64 32
  %7 = load ptr, ptr %6, align 8, !tbaa !3
  %8 = tail call fastcc ptr @eval(ptr noundef %0, ptr noundef %7, ptr noundef %2)
  %9 = tail call i32 @fputs(ptr noundef %8, ptr noundef %3)
  %10 = getelementptr inbounds nuw i8, ptr %.011, i64 40
  %.0 = load ptr, ptr %10, align 8, !tbaa !3
  %.not = icmp eq ptr %.0, null
  br i1 %.not, label %._crit_edge, label %.lr.ph, !llvm.loop !82

._crit_edge:                                      ; preds = %.lr.ph, %4
  %11 = tail call i32 @putc(i32 noundef 10, ptr noundef %3)
  ret void
}